; Function Attrs: mustprogress uwtable
define hidden noundef zeroext i1 @_ZN18OpenImageIO_v2_6_03pvt17TextureSystemImpl13get_imagespecENS_7ustringEiRNS_9ImageSpecE(ptr noundef nonnull align 8 dereferenceable(184) %this, ptr nocapture noundef readonly %filename, i32 noundef %subimage, ptr noundef nonnull align 8 dereferenceable(160) %spec) unnamed_addr #5 align 2 personality ptr @__gxx_personality_v0 {
entry:
  %agg.tmp = alloca %"class.OpenImageIO_v2_6_0::ustring", align 8
  %err = alloca %"class.std::__cxx11::basic_string", align 8
  %m_imagecache = getelementptr inbounds i8, ptr %this, i64 8
  %0 = load ptr, ptr %m_imagecache, align 8
  %1 = load ptr, ptr %filename, align 8
  store ptr %1, ptr %agg.tmp, align 8
  %call = call noundef zeroext i1 @_ZN18OpenImageIO_v2_6_03pvt14ImageCacheImpl13get_imagespecENS_7ustringERNS_9ImageSpecEiib(ptr noundef nonnull align 64 dereferenceable(25280) %0, ptr noundef nonnull %agg.tmp, ptr noundef nonnull align 8 dereferenceable(160) %spec, i32 noundef %subimage, i32 noundef 0, i1 noundef zeroext false)
  br i1 %call, label %if.end7, label %if.then

if.then:                                          ; preds = %entry
  %2 = load ptr, ptr %m_imagecache, align 8
  call void @_ZNK18OpenImageIO_v2_6_03pvt14ImageCacheImpl8geterrorB5cxx11Eb(ptr nonnull sret(%"class.std::__cxx11::basic_string") align 8 %err, ptr noundef nonnull align 64 dereferenceable(25280) %2, i1 noundef zeroext true)
  %call3 = call noundef zeroext i1 @_ZNKSt7__cxx1112basic_stringIcSt11char_traitsIcESaIcEE5emptyEv(ptr noundef nonnull align 8 dereferenceable(32) %err) #30
  br i1 %call3, label %if.end, label %if.then4

if.then4:                                         ; preds = %if.then
  invoke void @_ZNK18OpenImageIO_v2_6_03pvt17TextureSystemImpl5errorIJNSt7__cxx1112basic_stringIcSt11char_traitsIcESaIcEEEEEEvPKcDpRKT_(ptr noundef nonnull align 8 dereferenceable(184) %this, ptr noundef nonnull @.str.50, ptr noundef nonnull align 8 dereferenceable(32) %err)
          to label %if.end unwind label %lpad5

lpad5:                                            ; preds = %if.then4
  %3 = landingpad { ptr, i32 }
          cleanup
  call void @_ZNSt7__cxx1112basic_stringIcSt11char_traitsIcESaIcEED1Ev(ptr noundef nonnull align 8 dereferenceable(32) %err) #30
  resume { ptr, i32 } %3

if.end:                                           ; preds = %if.then4, %if.then
  call void @_ZNSt7__cxx1112basic_stringIcSt11char_traitsIcESaIcEED1Ev(ptr noundef nonnull align 8 dereferenceable(32) %err) #30
  br label %if.end7

if.end7:                                          ; preds = %if.end, %entry
  ret i1 %call
}